target datalayout = "e-m:e-p270:32:32-p271:32:32-p272:64:64-i64:64-i128:128-f80:128-n8:16:32:64-S128"
target triple = "x86_64-pc-linux-gnu"

@.str.69 = private unnamed_addr constant [7 x i8] c"pixbuf\00", align 1
@.str.70 = private unnamed_addr constant [7 x i8] c"column\00", align 1

; Function Attrs: nounwind uwtable
define internal void @_cell_data_func(ptr noundef %0, ptr noundef %1, ptr noundef %2, ptr noundef %3, ptr noundef %4) #0 {
  %6 = alloca ptr, align 8
  %7 = alloca ptr, align 8
  %8 = alloca ptr, align 8
  %9 = alloca ptr, align 8
  %10 = alloca ptr, align 8
  %11 = alloca ptr, align 8
  %12 = alloca ptr, align 8
  %13 = alloca ptr, align 8
  %14 = alloca i32, align 4
  %15 = alloca i32, align 4
  store ptr %0, ptr %6, align 8
  store ptr %1, ptr %7, align 8
  store ptr %2, ptr %8, align 8
  store ptr %3, ptr %9, align 8
  store ptr %4, ptr %10, align 8
  call void @llvm.lifetime.start.p0(i64 8, ptr %11) #11
  store ptr null, ptr %11, align 8
  call void @llvm.lifetime.start.p0(i64 8, ptr %12) #11
  call void @llvm.lifetime.start.p0(i64 8, ptr %13) #11
  call void @llvm.lifetime.start.p0(i64 4, ptr %14) #11
  %16 = load ptr, ptr %7, align 8
  call void (ptr, ptr, ...) @g_object_get(ptr noundef %16, ptr noundef @.str.69, ptr noundef %11, ptr noundef null)
  %17 = load ptr, ptr %11, align 8
  %18 = icmp ne ptr %17, null
  br i1 %18, label %20, label %19

19:                                               ; preds = %5
  store i32 1, ptr %15, align 4
  br label %41

20:                                               ; preds = %5
  %21 = load ptr, ptr %8, align 8
  %22 = load ptr, ptr %9, align 8
  %23 = load ptr, ptr %7, align 8
  %24 = call ptr @g_type_check_instance_cast(ptr noundef %23, i64 noundef 80)
  %25 = call ptr @g_object_get_data(ptr noundef %24, ptr noundef @.str.70)
  %26 = ptrtoint ptr %25 to i64
  %27 = trunc i64 %26 to i32
  call void (ptr, ptr, ...) @gtk_tree_model_get(ptr noundef %21, ptr noundef %22, i32 noundef %27, ptr noundef %12, i32 noundef -1)
  %28 = load ptr, ptr %12, align 8
  %29 = icmp ne ptr %28, null
  br i1 %29, label %31, label %30

30:                                               ; preds = %20
  store i32 1, ptr %15, align 4
  br label %41

31:                                               ; preds = %20
  %32 = load ptr, ptr %12, align 8
  %33 = getelementptr inbounds i8, ptr %32, i64 1
  store ptr %33, ptr %13, align 8
  %34 = load ptr, ptr %13, align 8
  %35 = call i64 @strtoul(ptr noundef %34, ptr noundef %13, i32 noundef 16) #11
  %36 = trunc i64 %35 to i32
  store i32 %36, ptr %14, align 4
  %37 = load ptr, ptr %12, align 8
  call void @g_free(ptr noundef %37)
  %38 = load ptr, ptr %11, align 8
  %39 = load i32, ptr %14, align 4
  %40 = shl i32 %39, 8
  call void @gdk_pixbuf_fill(ptr noundef %38, i32 noundef %40)
  store i32 0, ptr %15, align 4
  br label %41

41:                                               ; preds = %31, %30, %19
  call void @llvm.lifetime.end.p0(i64 4, ptr %14) #11
  call void @llvm.lifetime.end.p0(i64 8, ptr %13) #11
  call void @llvm.lifetime.end.p0(i64 8, ptr %12) #11
  call void @llvm.lifetime.end.p0(i64 8, ptr %11) #11
  %42 = load i32, ptr %15, align 4
  switch i32 %42, label %44 [
    i32 0, label %43
    i32 1, label %43
  ]

43:                                               ; preds = %41, %41
  ret void

44:                                               ; preds = %41
  unreachable
}