; Function Attrs: nounwind uwtable
define internal void @_cell_data_func(ptr readnone captures(none) %0, ptr noundef %1, ptr noundef %2, ptr noundef %3, ptr readnone captures(none) %4) #2 {
  %6 = alloca ptr, align 8
  %7 = alloca ptr, align 8
  %8 = alloca ptr, align 8
  call void @llvm.lifetime.start.p0(i64 8, ptr nonnull %6) #16
  store ptr null, ptr %6, align 8
  call void @llvm.lifetime.start.p0(i64 8, ptr nonnull %7) #16
  call void @llvm.lifetime.start.p0(i64 8, ptr nonnull %8) #16
  call void (ptr, ptr, ...) @g_object_get(ptr noundef %1, ptr noundef nonnull @.str.69, ptr noundef nonnull %6, ptr noundef null) #16
  %9 = load ptr, ptr %6, align 8
  %.not = icmp eq ptr %9, null
  br i1 %.not, label %23, label %10

10:                                               ; preds = %5
  %11 = call ptr @g_type_check_instance_cast(ptr noundef %1, i64 noundef 80) #16
  %12 = call ptr @g_object_get_data(ptr noundef %11, ptr noundef nonnull @.str.70) #16
  %13 = ptrtoint ptr %12 to i64
  %14 = trunc i64 %13 to i32
  call void (ptr, ptr, ...) @gtk_tree_model_get(ptr noundef %2, ptr noundef %3, i32 noundef %14, ptr noundef nonnull %7, i32 noundef -1) #16
  %15 = load ptr, ptr %7, align 8
  %.not4 = icmp eq ptr %15, null
  br i1 %.not4, label %23, label %16

16:                                               ; preds = %10
  %17 = getelementptr inbounds nuw i8, ptr %15, i64 1
  store ptr %17, ptr %8, align 8
  %18 = call i64 @strtoul(ptr noundef nonnull %17, ptr noundef nonnull %8, i32 noundef 16) #16
  %19 = trunc i64 %18 to i32
  %20 = load ptr, ptr %7, align 8
  call void @g_free(ptr noundef %20) #16
  %21 = load ptr, ptr %6, align 8
  %22 = shl i32 %19, 8
  call void @gdk_pixbuf_fill(ptr noundef %21, i32 noundef %22) #16
  br label %23

23:                                               ; preds = %10, %5, %16
  call void @llvm.lifetime.end.p0(i64 8, ptr nonnull %8) #16
  call void @llvm.lifetime.end.p0(i64 8, ptr nonnull %7) #16
  call void @llvm.lifetime.end.p0(i64 8, ptr nonnull %6) #16
  ret void
}